target datalayout = "e-m:e-p270:32:32-p271:32:32-p272:64:64-i64:64-i128:128-f80:128-n8:16:32:64-S128"
target triple = "x86_64-pc-linux-gnu"

%struct.ucd_record = type { i8, i8, i8, i8, i32, i16, i16 }

@_pcre2_ucd_records_8 = external constant [0 x %struct.ucd_record], align 4
@_pcre2_ucd_stage2_8 = external constant [0 x i16], align 2
@_pcre2_ucd_stage1_8 = external constant [0 x i16], align 2
@_pcre2_ucp_gentype_8 = external constant [0 x i32], align 4

; Function Attrs: nounwind uwtable
define internal i32 @read_name_subst(ptr noundef %0, ptr noundef %1, i32 noundef %2, ptr noundef %3) #0 {
  %5 = alloca i32, align 4
  %6 = alloca ptr, align 8
  %7 = alloca ptr, align 8
  %8 = alloca i32, align 4
  %9 = alloca ptr, align 8
  %10 = alloca ptr, align 8
  %11 = alloca ptr, align 8
  %12 = alloca i32, align 4
  %13 = alloca i32, align 4
  %14 = alloca i32, align 4
  store ptr %0, ptr %6, align 8, !tbaa !55
  store ptr %1, ptr %7, align 8, !tbaa !9
  store i32 %2, ptr %8, align 4, !tbaa !13
  store ptr %3, ptr %9, align 8, !tbaa !9
  call void @llvm.lifetime.start.p0(i64 8, ptr %10) #5
  %15 = load ptr, ptr %6, align 8, !tbaa !55
  %16 = load ptr, ptr %15, align 8, !tbaa !9
  store ptr %16, ptr %10, align 8, !tbaa !9
  call void @llvm.lifetime.start.p0(i64 8, ptr %11) #5
  %17 = load ptr, ptr %10, align 8, !tbaa !9
  store ptr %17, ptr %11, align 8, !tbaa !9
  %18 = load ptr, ptr %10, align 8, !tbaa !9
  %19 = load ptr, ptr %7, align 8, !tbaa !9
  %20 = icmp uge ptr %18, %19
  br i1 %20, label %21, label %22

21:                                               ; preds = %4
  br label %265

22:                                               ; preds = %4
  %23 = load i32, ptr %8, align 4, !tbaa !13
  %24 = icmp ne i32 %23, 0
  br i1 %24, label %25, label %228

25:                                               ; preds = %22
  call void @llvm.lifetime.start.p0(i64 4, ptr %12) #5
  call void @llvm.lifetime.start.p0(i64 4, ptr %13) #5
  br label %26

26:                                               ; preds = %226, %25
  %27 = load ptr, ptr %10, align 8, !tbaa !9
  %28 = load ptr, ptr %7, align 8, !tbaa !9
  %29 = icmp ult ptr %27, %28
  br i1 %29, label %30, label %227

30:                                               ; preds = %26
  %31 = load ptr, ptr %10, align 8, !tbaa !9
  %32 = load i8, ptr %31, align 1, !tbaa !43
  %33 = zext i8 %32 to i32
  store i32 %33, ptr %12, align 4, !tbaa !13
  %34 = load i32, ptr %12, align 4, !tbaa !13
  %35 = icmp uge i32 %34, 192
  br i1 %35, label %36, label %176

36:                                               ; preds = %30
  %37 = load i32, ptr %12, align 4, !tbaa !13
  %38 = and i32 %37, 32
  %39 = icmp eq i32 %38, 0
  br i1 %39, label %40, label %50

40:                                               ; preds = %36
  %41 = load i32, ptr %12, align 4, !tbaa !13
  %42 = and i32 %41, 31
  %43 = shl i32 %42, 6
  %44 = load ptr, ptr %10, align 8, !tbaa !9
  %45 = getelementptr inbounds i8, ptr %44, i64 1
  %46 = load i8, ptr %45, align 1, !tbaa !43
  %47 = zext i8 %46 to i32
  %48 = and i32 %47, 63
  %49 = or i32 %43, %48
  store i32 %49, ptr %12, align 4, !tbaa !13
  br label %175

50:                                               ; preds = %36
  %51 = load i32, ptr %12, align 4, !tbaa !13
  %52 = and i32 %51, 16
  %53 = icmp eq i32 %52, 0
  br i1 %53, label %54, label %71

54:                                               ; preds = %50
  %55 = load i32, ptr %12, align 4, !tbaa !13
  %56 = and i32 %55, 15
  %57 = shl i32 %56, 12
  %58 = load ptr, ptr %10, align 8, !tbaa !9
  %59 = getelementptr inbounds i8, ptr %58, i64 1
  %60 = load i8, ptr %59, align 1, !tbaa !43
  %61 = zext i8 %60 to i32
  %62 = and i32 %61, 63
  %63 = shl i32 %62, 6
  %64 = or i32 %57, %63
  %65 = load ptr, ptr %10, align 8, !tbaa !9
  %66 = getelementptr inbounds i8, ptr %65, i64 2
  %67 = load i8, ptr %66, align 1, !tbaa !43
  %68 = zext i8 %67 to i32
  %69 = and i32 %68, 63
  %70 = or i32 %64, %69
  store i32 %70, ptr %12, align 4, !tbaa !13
  br label %174

71:                                               ; preds = %50
  %72 = load i32, ptr %12, align 4, !tbaa !13
  %73 = and i32 %72, 8
  %74 = icmp eq i32 %73, 0
  br i1 %74, label %75, label %99

75:                                               ; preds = %71
  %76 = load i32, ptr %12, align 4, !tbaa !13
  %77 = and i32 %76, 7
  %78 = shl i32 %77, 18
  %79 = load ptr, ptr %10, align 8, !tbaa !9
  %80 = getelementptr inbounds i8, ptr %79, i64 1
  %81 = load i8, ptr %80, align 1, !tbaa !43
  %82 = zext i8 %81 to i32
  %83 = and i32 %82, 63
  %84 = shl i32 %83, 12
  %85 = or i32 %78, %84
  %86 = load ptr, ptr %10, align 8, !tbaa !9
  %87 = getelementptr inbounds i8, ptr %86, i64 2
  %88 = load i8, ptr %87, align 1, !tbaa !43
  %89 = zext i8 %88 to i32
  %90 = and i32 %89, 63
  %91 = shl i32 %90, 6
  %92 = or i32 %85, %91
  %93 = load ptr, ptr %10, align 8, !tbaa !9
  %94 = getelementptr inbounds i8, ptr %93, i64 3
  %95 = load i8, ptr %94, align 1, !tbaa !43
  %96 = zext i8 %95 to i32
  %97 = and i32 %96, 63
  %98 = or i32 %92, %97
  store i32 %98, ptr %12, align 4, !tbaa !13
  br label %173

99:                                               ; preds = %71
  %100 = load i32, ptr %12, align 4, !tbaa !13
  %101 = and i32 %100, 4
  %102 = icmp eq i32 %101, 0
  br i1 %102, label %103, label %134

103:                                              ; preds = %99
  %104 = load i32, ptr %12, align 4, !tbaa !13
  %105 = and i32 %104, 3
  %106 = shl i32 %105, 24
  %107 = load ptr, ptr %10, align 8, !tbaa !9
  %108 = getelementptr inbounds i8, ptr %107, i64 1
  %109 = load i8, ptr %108, align 1, !tbaa !43
  %110 = zext i8 %109 to i32
  %111 = and i32 %110, 63
  %112 = shl i32 %111, 18
  %113 = or i32 %106, %112
  %114 = load ptr, ptr %10, align 8, !tbaa !9
  %115 = getelementptr inbounds i8, ptr %114, i64 2
  %116 = load i8, ptr %115, align 1, !tbaa !43
  %117 = zext i8 %116 to i32
  %118 = and i32 %117, 63
  %119 = shl i32 %118, 12
  %120 = or i32 %113, %119
  %121 = load ptr, ptr %10, align 8, !tbaa !9
  %122 = getelementptr inbounds i8, ptr %121, i64 3
  %123 = load i8, ptr %122, align 1, !tbaa !43
  %124 = zext i8 %123 to i32
  %125 = and i32 %124, 63
  %126 = shl i32 %125, 6
  %127 = or i32 %120, %126
  %128 = load ptr, ptr %10, align 8, !tbaa !9
  %129 = getelementptr inbounds i8, ptr %128, i64 4
  %130 = load i8, ptr %129, align 1, !tbaa !43
  %131 = zext i8 %130 to i32
  %132 = and i32 %131, 63
  %133 = or i32 %127, %132
  store i32 %133, ptr %12, align 4, !tbaa !13
  br label %172

134:                                              ; preds = %99
  %135 = load i32, ptr %12, align 4, !tbaa !13
  %136 = and i32 %135, 1
  %137 = shl i32 %136, 30
  %138 = load ptr, ptr %10, align 8, !tbaa !9
  %139 = getelementptr inbounds i8, ptr %138, i64 1
  %140 = load i8, ptr %139, align 1, !tbaa !43
  %141 = zext i8 %140 to i32
  %142 = and i32 %141, 63
  %143 = shl i32 %142, 24
  %144 = or i32 %137, %143
  %145 = load ptr, ptr %10, align 8, !tbaa !9
  %146 = getelementptr inbounds i8, ptr %145, i64 2
  %147 = load i8, ptr %146, align 1, !tbaa !43
  %148 = zext i8 %147 to i32
  %149 = and i32 %148, 63
  %150 = shl i32 %149, 18
  %151 = or i32 %144, %150
  %152 = load ptr, ptr %10, align 8, !tbaa !9
  %153 = getelementptr inbounds i8, ptr %152, i64 3
  %154 = load i8, ptr %153, align 1, !tbaa !43
  %155 = zext i8 %154 to i32
  %156 = and i32 %155, 63
  %157 = shl i32 %156, 12
  %158 = or i32 %151, %157
  %159 = load ptr, ptr %10, align 8, !tbaa !9
  %160 = getelementptr inbounds i8, ptr %159, i64 4
  %161 = load i8, ptr %160, align 1, !tbaa !43
  %162 = zext i8 %161 to i32
  %163 = and i32 %162, 63
  %164 = shl i32 %163, 6
  %165 = or i32 %158, %164
  %166 = load ptr, ptr %10, align 8, !tbaa !9
  %167 = getelementptr inbounds i8, ptr %166, i64 5
  %168 = load i8, ptr %167, align 1, !tbaa !43
  %169 = zext i8 %168 to i32
  %170 = and i32 %169, 63
  %171 = or i32 %165, %170
  store i32 %171, ptr %12, align 4, !tbaa !13
  br label %172

172:                                              ; preds = %134, %103
  br label %173

173:                                              ; preds = %172, %75
  br label %174

174:                                              ; preds = %173, %54
  br label %175

175:                                              ; preds = %174, %40
  br label %176

176:                                              ; preds = %175, %30
  %177 = load i32, ptr %12, align 4, !tbaa !13
  %178 = sdiv i32 %177, 128
  %179 = sext i32 %178 to i64
  %180 = getelementptr inbounds [0 x i16], ptr @_pcre2_ucd_stage1_8, i64 0, i64 %179
  %181 = load i16, ptr %180, align 2, !tbaa !57
  %182 = zext i16 %181 to i32
  %183 = mul nsw i32 %182, 128
  %184 = load i32, ptr %12, align 4, !tbaa !13
  %185 = srem i32 %184, 128
  %186 = add nsw i32 %183, %185
  %187 = sext i32 %186 to i64
  %188 = getelementptr inbounds [0 x i16], ptr @_pcre2_ucd_stage2_8, i64 0, i64 %187
  %189 = load i16, ptr %188, align 2, !tbaa !57
  %190 = zext i16 %189 to i32
  %191 = sext i32 %190 to i64
  %192 = getelementptr inbounds %struct.ucd_record, ptr @_pcre2_ucd_records_8, i64 %191
  %193 = getelementptr inbounds nuw %struct.ucd_record, ptr %192, i32 0, i32 1
  %194 = load i8, ptr %193, align 1, !tbaa !58
  %195 = zext i8 %194 to i32
  store i32 %195, ptr %13, align 4, !tbaa !13
  %196 = load i32, ptr %13, align 4, !tbaa !13
  %197 = icmp ne i32 %196, 13
  br i1 %197, label %198, label %208

198:                                              ; preds = %176
  %199 = load i32, ptr %13, align 4, !tbaa !13
  %200 = zext i32 %199 to i64
  %201 = getelementptr inbounds nuw [0 x i32], ptr @_pcre2_ucp_gentype_8, i64 0, i64 %200
  %202 = load i32, ptr %201, align 4, !tbaa !13
  %203 = icmp ne i32 %202, 1
  br i1 %203, label %204, label %208

204:                                              ; preds = %198
  %205 = load i32, ptr %12, align 4, !tbaa !13
  %206 = icmp ne i32 %205, 95
  br i1 %206, label %207, label %208

207:                                              ; preds = %204
  br label %227

208:                                              ; preds = %204, %198, %176
  %209 = load ptr, ptr %10, align 8, !tbaa !9
  %210 = getelementptr inbounds nuw i8, ptr %209, i32 1
  store ptr %210, ptr %10, align 8, !tbaa !9
  br label %211

211:                                              ; preds = %223, %208
  %212 = load ptr, ptr %10, align 8, !tbaa !9
  %213 = load ptr, ptr %7, align 8, !tbaa !9
  %214 = icmp ult ptr %212, %213
  br i1 %214, label %215, label %221

215:                                              ; preds = %211
  %216 = load ptr, ptr %10, align 8, !tbaa !9
  %217 = load i8, ptr %216, align 1, !tbaa !43
  %218 = zext i8 %217 to i32
  %219 = and i32 %218, 192
  %220 = icmp eq i32 %219, 128
  br label %221

221:                                              ; preds = %215, %211
  %222 = phi i1 [ false, %211 ], [ %220, %215 ]
  br i1 %222, label %223, label %226

223:                                              ; preds = %221
  %224 = load ptr, ptr %10, align 8, !tbaa !9
  %225 = getelementptr inbounds nuw i8, ptr %224, i32 1
  store ptr %225, ptr %10, align 8, !tbaa !9
  br label %211

226:                                              ; preds = %221
  br label %26

227:                                              ; preds = %207, %26
  call void @llvm.lifetime.end.p0(i64 4, ptr %13) #5
  call void @llvm.lifetime.end.p0(i64 4, ptr %12) #5
  br label %249

228:                                              ; preds = %22
  br label %229

229:                                              ; preds = %245, %228
  %230 = load ptr, ptr %10, align 8, !tbaa !9
  %231 = load ptr, ptr %7, align 8, !tbaa !9
  %232 = icmp ult ptr %230, %231
  br i1 %232, label %233, label %243

233:                                              ; preds = %229
  %234 = load ptr, ptr %9, align 8, !tbaa !9
  %235 = load ptr, ptr %10, align 8, !tbaa !9
  %236 = load i8, ptr %235, align 1, !tbaa !43
  %237 = zext i8 %236 to i64
  %238 = getelementptr inbounds nuw i8, ptr %234, i64 %237
  %239 = load i8, ptr %238, align 1, !tbaa !43
  %240 = zext i8 %239 to i32
  %241 = and i32 %240, 16
  %242 = icmp ne i32 %241, 0
  br label %243

243:                                              ; preds = %233, %229
  %244 = phi i1 [ false, %229 ], [ %242, %233 ]
  br i1 %244, label %245, label %248

245:                                              ; preds = %243
  %246 = load ptr, ptr %10, align 8, !tbaa !9
  %247 = getelementptr inbounds nuw i8, ptr %246, i32 1
  store ptr %247, ptr %10, align 8, !tbaa !9
  br label %229

248:                                              ; preds = %243
  br label %249

249:                                              ; preds = %248, %227
  %250 = load ptr, ptr %10, align 8, !tbaa !9
  %251 = load ptr, ptr %11, align 8, !tbaa !9
  %252 = ptrtoint ptr %250 to i64
  %253 = ptrtoint ptr %251 to i64
  %254 = sub i64 %252, %253
  %255 = icmp sgt i64 %254, 128
  br i1 %255, label %256, label %257

256:                                              ; preds = %249
  br label %265

257:                                              ; preds = %249
  %258 = load ptr, ptr %10, align 8, !tbaa !9
  %259 = load ptr, ptr %11, align 8, !tbaa !9
  %260 = icmp eq ptr %258, %259
  br i1 %260, label %261, label %262

261:                                              ; preds = %257
  br label %265

262:                                              ; preds = %257
  %263 = load ptr, ptr %10, align 8, !tbaa !9
  %264 = load ptr, ptr %6, align 8, !tbaa !55
  store ptr %263, ptr %264, align 8, !tbaa !9
  store i32 1, ptr %5, align 4
  store i32 1, ptr %14, align 4
  br label %268

265:                                              ; preds = %261, %256, %21
  %266 = load ptr, ptr %10, align 8, !tbaa !9
  %267 = load ptr, ptr %6, align 8, !tbaa !55
  store ptr %266, ptr %267, align 8, !tbaa !9
  store i32 0, ptr %5, align 4
  store i32 1, ptr %14, align 4
  br label %268

268:                                              ; preds = %265, %262
  call void @llvm.lifetime.end.p0(i64 8, ptr %11) #5
  call void @llvm.lifetime.end.p0(i64 8, ptr %10) #5
  %269 = load i32, ptr %5, align 4
  ret i32 %269
}