; Function Attrs: nofree norecurse nosync nounwind memory(read, argmem: readwrite, inaccessiblemem: none) uwtable
define internal fastcc range(i32 0, 2) i32 @read_name_subst(ptr noundef nonnull captures(none) %0, ptr noundef readnone captures(address) %1, i32 noundef range(i32 0, 2) %2, ptr noundef readonly captures(none) %3) unnamed_addr #5 {
  %5 = ptrtoint ptr %1 to i64
  %6 = load ptr, ptr %0, align 8, !tbaa !34
  %7 = ptrtoint ptr %6 to i64
  %.not = icmp ult ptr %6, %1
  br i1 %.not, label %8, label %134

8:                                                ; preds = %4
  %.not67 = icmp eq i32 %2, 0
  br i1 %.not67, label %.lr.ph79.preheader, label %.lr.ph.preheader

.lr.ph.preheader:                                 ; preds = %8
  %.pr = load i8, ptr %6, align 1, !tbaa !31
  br label %.lr.ph

.lr.ph79.preheader:                               ; preds = %8
  %9 = sub i64 %5, %7
  %scevgep = getelementptr i8, ptr %6, i64 %9
  br label %.lr.ph79

.lr.ph:                                           ; preds = %120, %.lr.ph.preheader
  %10 = phi i8 [ %.pr, %.lr.ph.preheader ], [ %121, %120 ]
  %.175 = phi ptr [ %6, %.lr.ph.preheader ], [ %.2, %120 ]
  %11 = zext i8 %10 to i32
  %12 = icmp ugt i8 %10, -65
  br i1 %12, label %13, label %97

13:                                               ; preds = %.lr.ph
  %14 = and i32 %11, 32
  %15 = icmp eq i32 %14, 0
  %16 = getelementptr inbounds nuw i8, ptr %.175, i64 1
  %17 = load i8, ptr %16, align 1, !tbaa !31
  %18 = and i8 %17, 63
  %19 = zext nneg i8 %18 to i32
  br i1 %15, label %20, label %24

20:                                               ; preds = %13
  %21 = shl nuw nsw i32 %11, 6
  %22 = and i32 %21, 1984
  %23 = or disjoint i32 %22, %19
  br label %97

24:                                               ; preds = %13
  %25 = and i32 %11, 16
  %26 = icmp eq i32 %25, 0
  br i1 %26, label %27, label %37

27:                                               ; preds = %24
  %28 = shl nuw nsw i32 %11, 12
  %29 = and i32 %28, 61440
  %30 = shl nuw nsw i32 %19, 6
  %31 = or disjoint i32 %30, %29
  %32 = getelementptr inbounds nuw i8, ptr %.175, i64 2
  %33 = load i8, ptr %32, align 1, !tbaa !31
  %34 = and i8 %33, 63
  %35 = zext nneg i8 %34 to i32
  %36 = or disjoint i32 %31, %35
  br label %97

37:                                               ; preds = %24
  %38 = and i32 %11, 8
  %39 = icmp eq i32 %38, 0
  br i1 %39, label %40, label %56

40:                                               ; preds = %37
  %41 = shl nuw nsw i32 %11, 18
  %42 = and i32 %41, 1835008
  %43 = shl nuw nsw i32 %19, 12
  %44 = or disjoint i32 %43, %42
  %45 = getelementptr inbounds nuw i8, ptr %.175, i64 2
  %46 = load i8, ptr %45, align 1, !tbaa !31
  %47 = and i8 %46, 63
  %48 = zext nneg i8 %47 to i32
  %49 = shl nuw nsw i32 %48, 6
  %50 = or disjoint i32 %44, %49
  %51 = getelementptr inbounds nuw i8, ptr %.175, i64 3
  %52 = load i8, ptr %51, align 1, !tbaa !31
  %53 = and i8 %52, 63
  %54 = zext nneg i8 %53 to i32
  %55 = or disjoint i32 %50, %54
  br label %97

56:                                               ; preds = %37
  %57 = and i32 %11, 4
  %58 = icmp eq i32 %57, 0
  %59 = getelementptr inbounds nuw i8, ptr %.175, i64 2
  %60 = load i8, ptr %59, align 1, !tbaa !31
  %61 = and i8 %60, 63
  %62 = zext nneg i8 %61 to i32
  %63 = getelementptr inbounds nuw i8, ptr %.175, i64 3
  %64 = load i8, ptr %63, align 1, !tbaa !31
  %65 = and i8 %64, 63
  %66 = zext nneg i8 %65 to i32
  %67 = getelementptr inbounds nuw i8, ptr %.175, i64 4
  %68 = load i8, ptr %67, align 1, !tbaa !31
  %69 = and i8 %68, 63
  %70 = zext nneg i8 %69 to i32
  br i1 %58, label %71, label %81

71:                                               ; preds = %56
  %72 = shl nuw i32 %11, 24
  %73 = and i32 %72, 50331648
  %74 = shl nuw nsw i32 %19, 18
  %75 = or disjoint i32 %74, %73
  %76 = shl nuw nsw i32 %62, 12
  %77 = or disjoint i32 %75, %76
  %78 = shl nuw nsw i32 %66, 6
  %79 = or disjoint i32 %77, %78
  %80 = or disjoint i32 %79, %70
  br label %97

81:                                               ; preds = %56
  %82 = shl i32 %11, 30
  %83 = and i32 %82, 1073741824
  %84 = shl nuw nsw i32 %19, 24
  %85 = or disjoint i32 %84, %83
  %86 = shl nuw nsw i32 %62, 18
  %87 = or disjoint i32 %85, %86
  %88 = shl nuw nsw i32 %66, 12
  %89 = or disjoint i32 %87, %88
  %90 = shl nuw nsw i32 %70, 6
  %91 = or disjoint i32 %89, %90
  %92 = getelementptr inbounds nuw i8, ptr %.175, i64 5
  %93 = load i8, ptr %92, align 1, !tbaa !31
  %94 = and i8 %93, 63
  %95 = zext nneg i8 %94 to i32
  %96 = or disjoint i32 %91, %95
  br label %97

97:                                               ; preds = %20, %40, %81, %71, %27, %.lr.ph
  %.059 = phi i32 [ %23, %20 ], [ %36, %27 ], [ %55, %40 ], [ %80, %71 ], [ %96, %81 ], [ %11, %.lr.ph ]
  %98 = lshr i32 %.059, 7
  %99 = zext nneg i32 %98 to i64
  %100 = getelementptr inbounds nuw [0 x i16], ptr @_pcre2_ucd_stage1_8, i64 0, i64 %99
  %101 = load i16, ptr %100, align 2, !tbaa !43
  %102 = zext i16 %101 to i32
  %103 = shl nuw nsw i32 %102, 7
  %104 = and i32 %.059, 127
  %105 = or disjoint i32 %103, %104
  %106 = zext nneg i32 %105 to i64
  %107 = getelementptr inbounds nuw [0 x i16], ptr @_pcre2_ucd_stage2_8, i64 0, i64 %106
  %108 = load i16, ptr %107, align 2, !tbaa !43
  %109 = zext i16 %108 to i64
  %110 = getelementptr inbounds nuw %struct.ucd_record, ptr @_pcre2_ucd_records_8, i64 %109, i32 1
  %111 = load i8, ptr %110, align 1, !tbaa !44
  %.not69 = icmp eq i8 %111, 13
  br i1 %.not69, label %.preheader, label %112

112:                                              ; preds = %97
  %113 = zext i8 %111 to i64
  %114 = getelementptr inbounds nuw [0 x i32], ptr @_pcre2_ucp_gentype_8, i64 0, i64 %113
  %115 = load i32, ptr %114, align 4, !tbaa !38
  %116 = icmp ne i32 %115, 1
  %117 = icmp ne i32 %.059, 95
  %or.cond = and i1 %117, %116
  br i1 %or.cond, label %.critedge3, label %.preheader

.preheader:                                       ; preds = %112, %97
  br label %118

118:                                              ; preds = %.preheader, %120
  %.1.pn = phi ptr [ %.2, %120 ], [ %.175, %.preheader ]
  %.2 = getelementptr inbounds nuw i8, ptr %.1.pn, i64 1
  %119 = icmp ult ptr %.2, %1
  br i1 %119, label %120, label %.critedge3

120:                                              ; preds = %118
  %121 = load i8, ptr %.2, align 1, !tbaa !31
  %122 = icmp slt i8 %121, -64
  br i1 %122, label %118, label %.lr.ph

.lr.ph79:                                         ; preds = %.lr.ph79.preheader, %128
  %.478 = phi ptr [ %129, %128 ], [ %6, %.lr.ph79.preheader ]
  %123 = load i8, ptr %.478, align 1, !tbaa !31
  %124 = zext i8 %123 to i64
  %125 = getelementptr inbounds nuw i8, ptr %3, i64 %124
  %126 = load i8, ptr %125, align 1, !tbaa !31
  %127 = and i8 %126, 16
  %.not68 = icmp eq i8 %127, 0
  br i1 %.not68, label %.critedge3, label %128

128:                                              ; preds = %.lr.ph79
  %129 = getelementptr inbounds nuw i8, ptr %.478, i64 1
  %exitcond.not = icmp eq ptr %129, %1
  br i1 %exitcond.not, label %.critedge3, label %.lr.ph79

.critedge3:                                       ; preds = %112, %118, %128, %.lr.ph79
  %.3 = phi ptr [ %scevgep, %128 ], [ %.478, %.lr.ph79 ], [ %.2, %118 ], [ %.175, %112 ]
  %130 = ptrtoint ptr %.3 to i64
  %131 = sub i64 %130, %7
  %132 = icmp slt i64 %131, 129
  %133 = icmp ne ptr %.3, %6
  %or.cond70.not = and i1 %133, %132
  %spec.select = zext i1 %or.cond70.not to i32
  br label %134

134:                                              ; preds = %.critedge3, %4
  %storemerge = phi ptr [ %6, %4 ], [ %.3, %.critedge3 ]
  %.0 = phi i32 [ 0, %4 ], [ %spec.select, %.critedge3 ]
  store ptr %storemerge, ptr %0, align 8, !tbaa !34
  ret i32 %.0
}